; Function Attrs: nounwind uwtable
define range(i32 -1, -2147483648) i32 @evbuffer_add_printf(ptr noundef %0, ptr noundef %1, ...) local_unnamed_addr #1 {
  %3 = alloca [1 x %struct.__va_list_tag], align 16
  call void @llvm.lifetime.start.p0(i64 24, ptr nonnull %3) #16
  call void @llvm.va_start.p0(ptr nonnull %3)
  %4 = call i32 @evbuffer_add_vprintf(ptr noundef %0, ptr noundef %1, ptr noundef nonnull %3)
  call void @llvm.va_end.p0(ptr nonnull %3)
  call void @llvm.lifetime.end.p0(i64 24, ptr nonnull %3) #16
  ret i32 %4
}